; ModuleID = '54/623.c'
source_filename = "54/623.c"
target datalayout = "e-m:e-p270:32:32-p271:32:32-p272:64:64-i64:64-f80:128-n8:16:32:64-S128"
target triple = "x86_64-pc-linux-gnu"

@.str = private unnamed_addr constant [5 x i8] c"%d%d\00", align 1
@.str.1 = private unnamed_addr constant [4 x i8] c"%d\0A\00", align 1

; Function Attrs: noinline nounwind uwtable
define dso_local void @main() #0 {
  %1 = alloca i32, align 4
  %2 = alloca i32, align 4
  %3 = alloca i32, align 4
  %4 = call i32 (i8*, ...) @__isoc99_scanf(i8* getelementptr inbounds ([5 x i8], [5 x i8]* @.str, i64 0, i64 0), i32* %1, i32* %2)
  %5 = load i32, i32* %1, align 4
  %6 = sitofp i32 %5 to double
  %7 = load i32, i32* %1, align 4
  %8 = sitofp i32 %7 to double
  %9 = call double @pow(double %6, double %8) #3
  %10 = load i32, i32* %1, align 4
  %11 = sub nsw i32 %10, 1
  %12 = load i32, i32* %2, align 4
  %13 = mul nsw i32 %11, %12
  %14 = sitofp i32 %13 to double
  %15 = fsub double %9, %14
  %16 = fptosi double %15 to i32
  store i32 %16, i32* %3, align 4
  %17 = load i32, i32* %3, align 4
  %18 = call i32 (i8*, ...) @printf(i8* getelementptr inbounds ([4 x i8], [4 x i8]* @.str.1, i64 0, i64 0), i32 %17)
  ret void
}

declare dso_local i32 @__isoc99_scanf(i8*, ...) #1

; Function Attrs: nounwind
declare dso_local double @pow(double, double) #2

declare dso_local i32 @printf(i8*, ...) #1


!llvm.module.flags = !{!0}
!llvm.ident = !{!1}

!0 = !{i32 1, !"wchar_size", i32 4}
!1 = !{!"clang version 10.0.0-4ubuntu1 "}
